target datalayout = "e-m:e-p270:32:32-p271:32:32-p272:64:64-i64:64-i128:128-f80:128-n8:16:32:64-S128"
target triple = "x86_64-pc-linux-gnu"

%struct.AVProbeData = type { ptr, ptr, i32, ptr }

; Function Attrs: nounwind uwtable
define internal i32 @sol_probe(ptr noundef %0) #0 {
  %2 = alloca i32, align 4
  %3 = alloca ptr, align 8
  %4 = alloca i16, align 2
  %5 = alloca i32, align 4
  store ptr %0, ptr %3, align 8, !tbaa !4
  call void @llvm.lifetime.start.p0(i64 2, ptr %4) #3
  %6 = load ptr, ptr %3, align 8, !tbaa !4
  %7 = getelementptr inbounds nuw %struct.AVProbeData, ptr %6, i32 0, i32 1
  %8 = load ptr, ptr %7, align 8, !tbaa !9
  %9 = load i32, ptr %8, align 1, !tbaa !13
  %10 = trunc i32 %9 to i16
  store i16 %10, ptr %4, align 2, !tbaa !14
  %11 = load i16, ptr %4, align 2, !tbaa !14
  %12 = zext i16 %11 to i32
  %13 = icmp eq i32 %12, 2957
  br i1 %13, label %22, label %14

14:                                               ; preds = %1
  %15 = load i16, ptr %4, align 2, !tbaa !14
  %16 = zext i16 %15 to i32
  %17 = icmp eq i32 %16, 3085
  br i1 %17, label %22, label %18

18:                                               ; preds = %14
  %19 = load i16, ptr %4, align 2, !tbaa !14
  %20 = zext i16 %19 to i32
  %21 = icmp eq i32 %20, 3213
  br i1 %21, label %22, label %55

22:                                               ; preds = %18, %14, %1
  %23 = load ptr, ptr %3, align 8, !tbaa !4
  %24 = getelementptr inbounds nuw %struct.AVProbeData, ptr %23, i32 0, i32 1
  %25 = load ptr, ptr %24, align 8, !tbaa !9
  %26 = getelementptr inbounds i8, ptr %25, i64 2
  %27 = load i8, ptr %26, align 1, !tbaa !13
  %28 = zext i8 %27 to i32
  %29 = icmp eq i32 %28, 83
  br i1 %29, label %30, label %55

30:                                               ; preds = %22
  %31 = load ptr, ptr %3, align 8, !tbaa !4
  %32 = getelementptr inbounds nuw %struct.AVProbeData, ptr %31, i32 0, i32 1
  %33 = load ptr, ptr %32, align 8, !tbaa !9
  %34 = getelementptr inbounds i8, ptr %33, i64 3
  %35 = load i8, ptr %34, align 1, !tbaa !13
  %36 = zext i8 %35 to i32
  %37 = icmp eq i32 %36, 79
  br i1 %37, label %38, label %55

38:                                               ; preds = %30
  %39 = load ptr, ptr %3, align 8, !tbaa !4
  %40 = getelementptr inbounds nuw %struct.AVProbeData, ptr %39, i32 0, i32 1
  %41 = load ptr, ptr %40, align 8, !tbaa !9
  %42 = getelementptr inbounds i8, ptr %41, i64 4
  %43 = load i8, ptr %42, align 1, !tbaa !13
  %44 = zext i8 %43 to i32
  %45 = icmp eq i32 %44, 76
  br i1 %45, label %46, label %55

46:                                               ; preds = %38
  %47 = load ptr, ptr %3, align 8, !tbaa !4
  %48 = getelementptr inbounds nuw %struct.AVProbeData, ptr %47, i32 0, i32 1
  %49 = load ptr, ptr %48, align 8, !tbaa !9
  %50 = getelementptr inbounds i8, ptr %49, i64 5
  %51 = load i8, ptr %50, align 1, !tbaa !13
  %52 = zext i8 %51 to i32
  %53 = icmp eq i32 %52, 0
  br i1 %53, label %54, label %55

54:                                               ; preds = %46
  store i32 100, ptr %2, align 4
  store i32 1, ptr %5, align 4
  br label %56

55:                                               ; preds = %46, %38, %30, %22, %18
  store i32 0, ptr %2, align 4
  store i32 1, ptr %5, align 4
  br label %56

56:                                               ; preds = %55, %54
  call void @llvm.lifetime.end.p0(i64 2, ptr %4) #3
  %57 = load i32, ptr %2, align 4
  ret i32 %57
}