; Function Attrs: mustprogress nofree norecurse nosync nounwind willreturn memory(read, inaccessiblemem: none) uwtable
define internal range(i32 0, 101) i32 @sol_probe(ptr noundef readonly captures(none) %0) #0 {
  %2 = getelementptr inbounds nuw i8, ptr %0, i64 8
  %3 = load ptr, ptr %2, align 8, !tbaa !4
  %4 = load i32, ptr %3, align 1
  %5 = and i32 %4, 65535
  %6 = icmp eq i32 %5, 2957
  %7 = and i32 %4, 65407
  %8 = icmp eq i32 %7, 3085
  %or.cond5 = or i1 %6, %8
  %9 = and i32 %4, -65536
  %10 = icmp eq i32 %9, 1330839552
  %or.cond14 = and i1 %or.cond5, %10
  br i1 %or.cond14, label %11, label %19

11:                                               ; preds = %1
  %12 = getelementptr inbounds nuw i8, ptr %3, i64 4
  %13 = load i8, ptr %12, align 1, !tbaa !11
  %14 = icmp eq i8 %13, 76
  br i1 %14, label %15, label %19

15:                                               ; preds = %11
  %16 = getelementptr inbounds nuw i8, ptr %3, i64 5
  %17 = load i8, ptr %16, align 1, !tbaa !11
  %18 = icmp eq i8 %17, 0
  br i1 %18, label %20, label %19

19:                                               ; preds = %1, %15, %11
  br label %20

20:                                               ; preds = %15, %19
  %.0 = phi i32 [ 0, %19 ], [ 100, %15 ]
  ret i32 %.0
}